; Function Attrs: mustprogress nounwind uwtable
define dso_local noundef zeroext i1 @_ZNK4llvm15X86RegisterInfo18shouldRealignStackERKNS_15MachineFunctionE(ptr noundef nonnull align 8 dereferenceable(328) %0, ptr noundef nonnull align 8 dereferenceable(1041) %1) unnamed_addr #2 align 2 {
  %3 = tail call noundef zeroext i1 @_ZNK4llvm18TargetRegisterInfo18shouldRealignStackERKNS_15MachineFunctionE(ptr noundef nonnull align 8 dereferenceable(308) %0, ptr noundef nonnull align 8 dereferenceable(1041) %1) #22
  br i1 %3, label %14, label %4

4:                                                ; preds = %2
  %5 = getelementptr inbounds nuw i8, ptr %0, i64 308
  %6 = load i8, ptr %5, align 4
  %7 = trunc i8 %6 to i1
  br i1 %7, label %14, label %8

8:                                                ; preds = %4
  %9 = load ptr, ptr %1, align 8
  %10 = getelementptr inbounds nuw i8, ptr %9, i64 2
  %11 = load i16, ptr %10, align 2
  %12 = and i16 %11, 16368
  %13 = icmp eq i16 %12, 1328
  br label %14

14:                                               ; preds = %4, %8, %2
  %.0 = phi i1 [ true, %2 ], [ false, %4 ], [ %13, %8 ]
  ret i1 %.0
}